; Function Attrs: mustprogress nofree norecurse nosync nounwind willreturn memory(argmem: write) uwtable
define hidden void @_ZN5ceres8internal20InnerProductComputerC2ERKNS0_17BlockSparseMatrixEii(ptr noundef nonnull writeonly align 8 captures(none) dereferenceable(48) initializes((0, 48)) %0, ptr noundef nonnull align 8 dereferenceable(56) %1, i32 noundef %2, i32 noundef %3) unnamed_addr #3 align 2 personality ptr @__gxx_personality_v0 {
  store ptr %1, ptr %0, align 8, !tbaa !71
  %5 = getelementptr inbounds nuw i8, ptr %0, i64 8
  store i32 %2, ptr %5, align 8, !tbaa !72
  %6 = getelementptr inbounds nuw i8, ptr %0, i64 12
  store i32 %3, ptr %6, align 4, !tbaa !73
  %7 = getelementptr inbounds nuw i8, ptr %0, i64 16
  tail call void @llvm.memset.p0.i64(ptr noundef nonnull align 8 dereferenceable(32) %7, i8 0, i64 32, i1 false)
  ret void
}